target datalayout = "e-m:e-p270:32:32-p271:32:32-p272:64:64-i64:64-i128:128-f80:128-n8:16:32:64-S128"
target triple = "x86_64-pc-linux-gnu"

%class.dtTileCache = type { i32, i32, ptr, ptr, ptr, i32, i32, %struct.dtTileCacheParams, ptr, ptr, ptr, ptr, ptr, [64 x %"struct.dtTileCache::ObstacleRequest"], i32, [64 x i32], i32 }
%struct.dtTileCacheParams = type { [3 x float], float, float, i32, i32, float, float, float, float, i32, i32 }
%"struct.dtTileCache::ObstacleRequest" = type { i32, i32 }
%struct.dtTileCacheObstacle = type { %union.anon, [8 x i32], [8 x i32], i16, i8, i8, i8, i8, ptr }
%union.anon = type { %struct.dtObstacleOrientedBox }
%struct.dtObstacleOrientedBox = type { [3 x float], [3 x float], [2 x float] }

; Function Attrs: mustprogress nounwind uwtable
define linkonce_odr noundef i32 @_ZNK11dtTileCache16encodeObstacleIdEjj(ptr noundef nonnull align 8 dereferenceable(912) %0, i32 noundef %1, i32 noundef %2) #2 comdat align 2 {
  %4 = alloca ptr, align 8
  %5 = alloca i32, align 4
  %6 = alloca i32, align 4
  store ptr %0, ptr %4, align 8
  store i32 %1, ptr %5, align 4
  store i32 %2, ptr %6, align 4
  %7 = load i32, ptr %5, align 4
  %8 = shl i32 %7, 16
  %9 = load i32, ptr %6, align 4
  %10 = or i32 %8, %9
  ret i32 %10
}

; Function Attrs: mustprogress uwtable
define noundef i32 @_ZNK11dtTileCache14getObstacleRefEPK19dtTileCacheObstacle(ptr noundef nonnull align 8 dereferenceable(912) %0, ptr noundef %1) #0 align 2 {
  %3 = alloca i32, align 4
  %4 = alloca ptr, align 8
  %5 = alloca ptr, align 8
  %6 = alloca i32, align 4
  store ptr %0, ptr %4, align 8
  store ptr %1, ptr %5, align 8
  %7 = load ptr, ptr %4, align 8
  %8 = load ptr, ptr %5, align 8
  %9 = icmp ne ptr %8, null
  br i1 %9, label %11, label %10

10:                                               ; preds = %2
  store i32 0, ptr %3, align 4
  br label %26

11:                                               ; preds = %2
  %12 = load ptr, ptr %5, align 8
  %13 = getelementptr inbounds %class.dtTileCache, ptr %7, i32 0, i32 11
  %14 = load ptr, ptr %13, align 8
  %15 = ptrtoint ptr %12 to i64
  %16 = ptrtoint ptr %14 to i64
  %17 = sub i64 %15, %16
  %18 = sdiv exact i64 %17, 112
  %19 = trunc i64 %18 to i32
  store i32 %19, ptr %6, align 4
  %20 = load ptr, ptr %5, align 8
  %21 = getelementptr inbounds %struct.dtTileCacheObstacle, ptr %20, i32 0, i32 3
  %22 = load i16, ptr %21, align 8
  %23 = zext i16 %22 to i32
  %24 = load i32, ptr %6, align 4
  %25 = call noundef i32 @_ZNK11dtTileCache16encodeObstacleIdEjj(ptr noundef nonnull align 8 dereferenceable(912) %7, i32 noundef %23, i32 noundef %24)
  store i32 %25, ptr %3, align 4
  br label %26

26:                                               ; preds = %11, %10
  %27 = load i32, ptr %3, align 4
  ret i32 %27
}