; Function Attrs: mustprogress nofree norecurse nosync nounwind willreturn memory(argmem: read) uwtable
define noundef i32 @_ZNK11dtTileCache14getObstacleRefEPK19dtTileCacheObstacle(ptr noundef nonnull readonly align 8 captures(none) dereferenceable(912) %0, ptr noundef %1) local_unnamed_addr #10 align 2 {
  %.not = icmp eq ptr %1, null
  br i1 %.not, label %16, label %3

3:                                                ; preds = %2
  %4 = getelementptr inbounds nuw i8, ptr %0, i64 120
  %5 = load ptr, ptr %4, align 8
  %6 = ptrtoint ptr %1 to i64
  %7 = ptrtoint ptr %5 to i64
  %8 = sub i64 %6, %7
  %9 = sdiv exact i64 %8, 112
  %10 = trunc i64 %9 to i32
  %11 = getelementptr inbounds nuw i8, ptr %1, i64 96
  %12 = load i16, ptr %11, align 8
  %13 = zext i16 %12 to i32
  %14 = shl nuw i32 %13, 16
  %15 = or i32 %14, %10
  br label %16

16:                                               ; preds = %2, %3
  %.0 = phi i32 [ %15, %3 ], [ 0, %2 ]
  ret i32 %.0
}